; Function Attrs: mustprogress uwtable
define hidden void @_ZN6Assimp7OpenGEX15OpenGEXImporter15handleParamNodeEPN10ODDLParser7DDLNodeEP7aiScene(ptr nocapture noundef nonnull readonly align 8 dereferenceable(776) %this, ptr noundef %node, ptr nocapture readnone %0) local_unnamed_addr #7 align 2 personality ptr @__gxx_personality_v0 {
entry:
  %ref.tmp = alloca %"class.std::__cxx11::basic_string", align 8
  %ref.tmp2 = alloca %"class.std::allocator.0", align 1
  %cmp = icmp eq ptr %node, null
  br i1 %cmp, label %if.end36, label %if.end

if.end:                                           ; preds = %entry
  call void @_ZNSaIcEC1Ev(ptr noundef nonnull align 1 dereferenceable(1) %ref.tmp2) #25
  %call.i11 = invoke noundef ptr @_ZNSt7__cxx1112basic_stringIcSt11char_traitsIcESaIcEE13_M_local_dataEv(ptr noundef nonnull align 8 dereferenceable(32) %ref.tmp)
          to label %call.i.noexc unwind label %lpad

call.i.noexc:                                     ; preds = %if.end
  invoke void @_ZNSt7__cxx1112basic_stringIcSt11char_traitsIcESaIcEE12_Alloc_hiderC1EPcRKS3_(ptr noundef nonnull align 8 dereferenceable(8) %ref.tmp, ptr noundef %call.i11, ptr noundef nonnull align 1 dereferenceable(1) %ref.tmp2)
          to label %.noexc unwind label %lpad

.noexc:                                           ; preds = %call.i.noexc
  invoke void @_ZNSt7__cxx1112basic_stringIcSt11char_traitsIcESaIcEE12_M_constructIPKcEEvT_S8_St20forward_iterator_tag(ptr noundef nonnull align 8 dereferenceable(32) %ref.tmp, ptr noundef nonnull @.str.23, ptr noundef nonnull getelementptr inbounds ([7 x i8], ptr @.str.23, i64 0, i64 6))
          to label %invoke.cont unwind label %lpad.i

lpad.i:                                           ; preds = %.noexc
  %1 = landingpad { ptr, i32 }
          cleanup
  call void @_ZNSaIcED2Ev(ptr noundef nonnull align 1 dereferenceable(1) %ref.tmp) #25
  br label %ehcleanup

invoke.cont:                                      ; preds = %.noexc
  %call = invoke noundef ptr @_ZN10ODDLParser7DDLNode18findPropertyByNameERKNSt7__cxx1112basic_stringIcSt11char_traitsIcESaIcEEE(ptr noundef nonnull align 8 dereferenceable(136) %node, ptr noundef nonnull align 8 dereferenceable(32) %ref.tmp)
          to label %invoke.cont4 unwind label %lpad3

invoke.cont4:                                     ; preds = %invoke.cont
  call void @_ZNSt7__cxx1112basic_stringIcSt11char_traitsIcESaIcEED1Ev(ptr noundef nonnull align 8 dereferenceable(32) %ref.tmp) #25
  call void @_ZNSaIcED1Ev(ptr noundef nonnull align 1 dereferenceable(1) %ref.tmp2) #25
  %cmp5 = icmp eq ptr %call, null
  br i1 %cmp5, label %if.end36, label %if.end7

lpad:                                             ; preds = %call.i.noexc, %if.end
  %2 = landingpad { ptr, i32 }
          cleanup
  br label %ehcleanup

lpad3:                                            ; preds = %invoke.cont
  %3 = landingpad { ptr, i32 }
          cleanup
  call void @_ZNSt7__cxx1112basic_stringIcSt11char_traitsIcESaIcEED1Ev(ptr noundef nonnull align 8 dereferenceable(32) %ref.tmp) #25
  br label %ehcleanup

ehcleanup:                                        ; preds = %lpad, %lpad.i, %lpad3
  %.pn = phi { ptr, i32 } [ %3, %lpad3 ], [ %2, %lpad ], [ %1, %lpad.i ]
  call void @_ZNSaIcED1Ev(ptr noundef nonnull align 1 dereferenceable(1) %ref.tmp2) #25
  resume { ptr, i32 } %.pn

if.end7:                                          ; preds = %invoke.cont4
  %m_value = getelementptr inbounds i8, ptr %call, i64 8
  %4 = load ptr, ptr %m_value, align 8
  %cmp8.not = icmp eq ptr %4, null
  br i1 %cmp8.not, label %if.end36, label %if.then9

if.then9:                                         ; preds = %if.end7
  %call10 = call noundef ptr @_ZNK10ODDLParser7DDLNode8getValueEv(ptr noundef nonnull align 8 dereferenceable(136) %node)
  %cmp11 = icmp eq ptr %call10, null
  br i1 %cmp11, label %if.end36, label %if.end13

if.end13:                                         ; preds = %if.then9
  %call14 = call noundef float @_ZNK10ODDLParser5Value8getFloatEv(ptr noundef nonnull align 8 dereferenceable(32) %call10)
  %5 = load ptr, ptr %m_value, align 8
  %call16 = call noundef ptr @_ZNK10ODDLParser5Value9getStringEv(ptr noundef nonnull align 8 dereferenceable(32) %5)
  %call.i = call i32 @strncasecmp(ptr noundef nonnull @.str.28, ptr noundef %call16, i64 noundef 3) #30
  %cmp18 = icmp eq i32 %call.i, 0
  br i1 %cmp18, label %if.end36.sink.split, label %if.else

if.else:                                          ; preds = %if.end13
  %6 = load ptr, ptr %m_value, align 8
  %call21 = call noundef ptr @_ZNK10ODDLParser5Value9getStringEv(ptr noundef nonnull align 8 dereferenceable(32) %6)
  %call.i12 = call i32 @strncasecmp(ptr noundef nonnull @.str.29, ptr noundef %call21, i64 noundef 4) #30
  %cmp23 = icmp eq i32 %call.i12, 0
  br i1 %cmp23, label %if.end36.sink.split, label %if.else26

if.else26:                                        ; preds = %if.else
  %7 = load ptr, ptr %m_value, align 8
  %call28 = call noundef ptr @_ZNK10ODDLParser5Value9getStringEv(ptr noundef nonnull align 8 dereferenceable(32) %7)
  %call.i13 = call i32 @strncasecmp(ptr noundef nonnull @.str.30, ptr noundef %call28, i64 noundef 3) #30
  %cmp30 = icmp eq i32 %call.i13, 0
  br i1 %cmp30, label %if.end36.sink.split, label %if.end36

if.end36.sink.split:                              ; preds = %if.else26, %if.else, %if.end13
  %.sink14 = phi i64 [ 1064, %if.end13 ], [ 1068, %if.else ], [ 1072, %if.else26 ]
  %m_currentCamera = getelementptr inbounds i8, ptr %this, i64 640
  %8 = load ptr, ptr %m_currentCamera, align 8
  %mHorizontalFOV = getelementptr inbounds i8, ptr %8, i64 %.sink14
  store float %call14, ptr %mHorizontalFOV, align 4
  br label %if.end36

if.end36:                                         ; preds = %if.end36.sink.split, %if.else26, %if.then9, %invoke.cont4, %entry, %if.end7
  ret void
}